
Allocating common symbols
Common symbol       size              file

ticker              0x4               ..\obj\main.o
APP_Tx_Buffer       0x80              ..\obj\usbd_cdc_vcp.o
usbd_cdc_OtherCfgDesc
                    0x43              ..\obj\usbd_cdc_core.o
APP_tx_ptr_tail     0x4               ..\obj\usbd_cdc_vcp.o
downTicker          0x4               ..\obj\main.o
USB_Rx_Buffer       0x40              ..\obj\usbd_cdc_core.o
USART_InitStructure
                    0x10              ..\obj\usbd_cdc_vcp.o
CmdBuff             0x8               ..\obj\usbd_cdc_core.o
USB_OTG_dev         0x5f0             ..\obj\main.o
APP_Rx_Buffer       0x800             ..\obj\usbd_cdc_core.o
USBD_StrDesc        0x32              ..\obj\usbd_req.o
APP_tx_ptr_head     0x4               ..\obj\usbd_cdc_vcp.o

Discarded input sections

 .data          0x00000000        0x0 ..\obj\stm32f4xx_gpio.o
 .bss           0x00000000        0x0 ..\obj\stm32f4xx_gpio.o
 .text          0x00000000      0x920 ..\obj\stm32f4xx_usart.o
 .data          0x00000000        0x0 ..\obj\stm32f4xx_usart.o
 .bss           0x00000000        0x0 ..\obj\stm32f4xx_usart.o
 .debug_info    0x00000000      0x9c2 ..\obj\stm32f4xx_usart.o
 .debug_abbrev  0x00000000      0x155 ..\obj\stm32f4xx_usart.o
 .debug_aranges
                0x00000000       0x20 ..\obj\stm32f4xx_usart.o
 .debug_line    0x00000000      0x36c ..\obj\stm32f4xx_usart.o
 .debug_str     0x00000000      0x684 ..\obj\stm32f4xx_usart.o
 .comment       0x00000000       0x71 ..\obj\stm32f4xx_usart.o
 .debug_frame   0x00000000      0x490 ..\obj\stm32f4xx_usart.o
 .ARM.attributes
                0x00000000       0x33 ..\obj\stm32f4xx_usart.o
 .data          0x00000000        0x0 ..\obj\usbd_req.o
 .bss           0x00000000        0x0 ..\obj\usbd_cdc_vcp.o
 .data          0x00000000        0x0 ..\obj\usb_dcd_int.o
 .bss           0x00000000        0x0 ..\obj\usb_dcd_int.o
 .data          0x00000000        0x0 ..\obj\usb_bsp.o
 .bss           0x00000000        0x0 ..\obj\usb_bsp.o
 .data          0x00000000        0x0 ..\obj\misc.o
 .bss           0x00000000        0x0 ..\obj\misc.o
 .bss           0x00000000        0x0 ..\obj\usbd_usr.o
 .data          0x00000000        0x0 ..\obj\main.o
 .bss           0x00000000        0x0 ..\obj\main.o
 .bss           0x00000000        0x0 ..\obj\usbd_core.o
 .data          0x00000000        0x0 ..\obj\startup_stm32f4xx.o
 .bss           0x00000000        0x0 ..\obj\startup_stm32f4xx.o
 .bss           0x00000000        0x0 ..\obj\stm32f4xx_rcc.o
 .data          0x00000000        0x0 ..\obj\usb_core.o
 .bss           0x00000000        0x0 ..\obj\usb_core.o
 .data          0x00000000        0x0 ..\obj\usbd_ioreq.o
 .bss           0x00000000        0x0 ..\obj\usbd_ioreq.o
 .data          0x00000000        0x0 ..\obj\stm32f4xx_exti.o
 .bss           0x00000000        0x0 ..\obj\stm32f4xx_exti.o
 .bss           0x00000000        0x0 ..\obj\system_stm32f4xx.o
 .data          0x00000000        0x0 ..\obj\usb_dcd.o
 .bss           0x00000000        0x0 ..\obj\usb_dcd.o
 .bss           0x00000000        0x0 ..\obj\usbd_desc.o

Memory Configuration

Name             Origin             Length             Attributes
FLASH            0x08000000         0x00200000         xr
RAM              0x20000000         0x00030000         xrw
CCMRAM           0x10000000         0x00010000         rw
*default*        0x00000000         0xffffffff

Linker script and memory map

                0x2002ffff                _estack = 0x2002ffff
                0x00000400                _Min_Heap_Size = 0x400
                0x00000400                _Min_Stack_Size = 0x400

.isr_vector     0x08000000      0x188
                0x08000000                . = ALIGN (0x4)
 *(.isr_vector)
 .isr_vector    0x08000000      0x188 ..\obj\startup_stm32f4xx.o
                0x08000000                g_pfnVectors
                0x08000188                . = ALIGN (0x4)

.text           0x08000188     0x5868
                0x08000188                . = ALIGN (0x4)
 *(.text)
 .text          0x08000188      0x48c ..\obj\stm32f4xx_gpio.o
                0x08000188                GPIO_DeInit
                0x080002a8                GPIO_Init
                0x080003c4                GPIO_StructInit
                0x080003f8                GPIO_PinLockConfig
                0x0800043c                GPIO_ReadInputDataBit
                0x08000470                GPIO_ReadInputData
                0x0800048c                GPIO_ReadOutputDataBit
                0x080004c0                GPIO_ReadOutputData
                0x080004dc                GPIO_SetBits
                0x080004f8                GPIO_ResetBits
                0x08000514                GPIO_WriteBit
                0x08000544                GPIO_Write
                0x08000560                GPIO_ToggleBits
                0x08000584                GPIO_PinAFConfig
 .text          0x08000614      0x938 ..\obj\usbd_req.o
                0x08000614                USBD_StdDevReq
                0x080006b4                USBD_StdItfReq
                0x0800071c                USBD_StdEPReq
                0x08000dc0                USBD_ParseSetupRequest
                0x08000e50                USBD_CtlError
                0x08000e98                USBD_GetString
 .text          0x08000f4c      0x3ec ..\obj\usbd_cdc_vcp.o
                0x0800107c                VCP_put_char
                0x08001098                VCP_send_str
                0x080010c8                VCP_send_buffer
                0x080011b4                VCP_get_char
                0x0800120c                VCP_get_string
                0x0800132c                EVAL_COM_IRQHandler
 .text          0x08001338      0xa60 ..\obj\usb_dcd_int.o
                0x08001338                USBD_OTG_ISR_Handler
 .text          0x08001d98      0x174 ..\obj\usb_bsp.o
                0x08001d98                USB_OTG_BSP_ConfigVBUS
                0x08001dac                USB_OTG_BSP_DriveVBUS
                0x08001dc4                USB_OTG_BSP_Init
                0x08001e74                USB_OTG_BSP_EnableInterrupt
                0x08001ea4                USB_OTG_BSP_uDelay
                0x08001eec                USB_OTG_BSP_mDelay
 .text          0x08001f0c      0x188 ..\obj\misc.o
                0x08001f0c                NVIC_PriorityGroupConfig
                0x08001f30                NVIC_Init
                0x08001ff0                NVIC_SetVectorTable
                0x0800201c                NVIC_SystemLPConfig
                0x0800205c                SysTick_CLKSourceConfig
 .text          0x08002094       0x70 ..\obj\usbd_usr.o
                0x08002094                USBD_USR_Init
                0x080020a0                USBD_USR_DeviceReset
                0x080020c8                USBD_USR_DeviceConfigured
                0x080020d4                USBD_USR_DeviceConnected
                0x080020e0                USBD_USR_DeviceDisconnected
                0x080020ec                USBD_USR_DeviceSuspended
                0x080020f8                USBD_USR_DeviceResumed
 .text          0x08002104      0x2b4 ..\obj\main.o
                0x0800219c                main
                0x08002238                init
                0x08002298                ColorfulRingOfDeath
                0x080022e4                SysTick_Handler
                0x08002314                NMI_Handler
                0x08002320                HardFault_Handler
                0x0800232c                MemManage_Handler
                0x08002338                BusFault_Handler
                0x08002344                UsageFault_Handler
                0x08002350                SVC_Handler
                0x0800235c                DebugMon_Handler
                0x08002368                PendSV_Handler
                0x08002374                OTG_FS_IRQHandler
                0x08002384                OTG_FS_WKUP_IRQHandler
 .text          0x080023b8      0x3f8 ..\obj\usbd_core.o
                0x080023b8                USBD_Init
                0x0800240c                USBD_DeInit
                0x08002718                USBD_SetCfg
                0x08002748                USBD_ClrCfg
 .text          0x080027b0       0x60 ..\obj\startup_stm32f4xx.o
                0x080027b0                Default_Reset_Handler
                0x080027b0                Reset_Handler
                0x08002800                EXTI2_IRQHandler
                0x08002800                TIM8_CC_IRQHandler
                0x08002800                TIM1_CC_IRQHandler
                0x08002800                DMA2_Stream5_IRQHandler
                0x08002800                DMA1_Stream5_IRQHandler
                0x08002800                PVD_IRQHandler
                0x08002800                SDIO_IRQHandler
                0x08002800                TAMP_STAMP_IRQHandler
                0x08002800                CAN2_RX1_IRQHandler
                0x08002800                EXTI3_IRQHandler
                0x08002800                TIM8_TRG_COM_TIM14_IRQHandler
                0x08002800                TIM1_UP_TIM10_IRQHandler
                0x08002800                TIM8_UP_TIM13_IRQHandler
                0x08002800                I2C3_ER_IRQHandler
                0x08002800                EXTI0_IRQHandler
                0x08002800                HASH_RNG_IRQHandler
                0x08002800                DMA1_Stream2_IRQHandler
                0x08002800                CAN1_RX0_IRQHandler
                0x08002800                FPU_IRQHandler
                0x08002800                OTG_HS_WKUP_IRQHandler
                0x08002800                CAN2_SCE_IRQHandler
                0x08002800                DMA2_Stream2_IRQHandler
                0x08002800                SPI1_IRQHandler
                0x08002800                TIM6_DAC_IRQHandler
                0x08002800                TIM1_BRK_TIM9_IRQHandler
                0x08002800                DCMI_IRQHandler
                0x08002800                CAN2_RX0_IRQHandler
                0x08002800                DMA2_Stream3_IRQHandler
                0x08002800                USART6_IRQHandler
                0x08002800                USART3_IRQHandler
                0x08002800                CRYP_IRQHandler
                0x08002800                I2C2_EV_IRQHandler
                0x08002800                CAN1_RX1_IRQHandler
                0x08002800                UART5_IRQHandler
                0x08002800                DMA2_Stream0_IRQHandler
                0x08002800                TIM4_IRQHandler
                0x08002800                I2C1_EV_IRQHandler
                0x08002800                DMA1_Stream6_IRQHandler
                0x08002800                DMA1_Stream1_IRQHandler
                0x08002800                UART4_IRQHandler
                0x08002800                TIM3_IRQHandler
                0x08002800                RCC_IRQHandler
                0x08002800                TIM8_BRK_TIM12_IRQHandler
                0x08002800                EXTI15_10_IRQHandler
                0x08002800                ADC_IRQHandler
                0x08002800                RTC_Alarm_IRQHandler
                0x08002800                DMA1_Stream7_IRQHandler
                0x08002800                TIM7_IRQHandler
                0x08002800                CAN2_TX_IRQHandler
                0x08002800                TIM5_IRQHandler
                0x08002800                DMA2_Stream7_IRQHandler
                0x08002800                I2C3_EV_IRQHandler
                0x08002800                EXTI9_5_IRQHandler
                0x08002800                RTC_WKUP_IRQHandler
                0x08002800                ETH_WKUP_IRQHandler
                0x08002800                SPI2_IRQHandler
                0x08002800                OTG_HS_EP1_IN_IRQHandler
                0x08002800                DMA1_Stream0_IRQHandler
                0x08002800                CAN1_TX_IRQHandler
                0x08002800                EXTI4_IRQHandler
                0x08002800                FSMC_IRQHandler
                0x08002800                ETH_IRQHandler
                0x08002800                OTG_HS_EP1_OUT_IRQHandler
                0x08002800                WWDG_IRQHandler
                0x08002800                TIM2_IRQHandler
                0x08002800                TIM1_TRG_COM_TIM11_IRQHandler
                0x08002800                OTG_HS_IRQHandler
                0x08002800                EXTI1_IRQHandler
                0x08002800                USART2_IRQHandler
                0x08002800                I2C2_ER_IRQHandler
                0x08002800                DMA2_Stream1_IRQHandler
                0x08002800                CAN1_SCE_IRQHandler
                0x08002800                FLASH_IRQHandler
                0x08002800                DMA2_Stream4_IRQHandler
                0x08002800                USART1_IRQHandler
                0x08002800                SPI3_IRQHandler
                0x08002800                DMA1_Stream4_IRQHandler
                0x08002800                I2C1_ER_IRQHandler
                0x08002800                DMA2_Stream6_IRQHandler
                0x08002800                DMA1_Stream3_IRQHandler
 .text          0x08002810      0xa80 ..\obj\stm32f4xx_rcc.o
                0x08002810                RCC_DeInit
                0x08002860                RCC_HSEConfig
                0x08002884                RCC_WaitForHSEStartUp
                0x080028d4                RCC_AdjustHSICalibrationValue
                0x08002910                RCC_HSICmd
                0x08002930                RCC_LSEConfig
                0x08002970                RCC_LSICmd
                0x08002990                RCC_PLLConfig
                0x080029cc                RCC_PLLCmd
                0x080029ec                RCC_PLLI2SConfig
                0x08002a14                RCC_PLLI2SCmd
                0x08002a34                RCC_ClockSecuritySystemCmd
                0x08002a54                RCC_MCO1Config
                0x08002a90                RCC_MCO2Config
                0x08002acc                RCC_SYSCLKConfig
                0x08002b04                RCC_GetSYSCLKSource
                0x08002b24                RCC_HCLKConfig
                0x08002b5c                RCC_PCLK1Config
                0x08002b94                RCC_PCLK2Config
                0x08002bcc                RCC_GetClocksFreq
                0x08002d20                RCC_RTCCLKConfig
                0x08002d7c                RCC_RTCCLKCmd
                0x08002d9c                RCC_BackupResetCmd
                0x08002dbc                RCC_I2SCLKConfig
                0x08002dd8                RCC_AHB1PeriphClockCmd
                0x08002e14                RCC_AHB2PeriphClockCmd
                0x08002e50                RCC_AHB3PeriphClockCmd
                0x08002e8c                RCC_APB1PeriphClockCmd
                0x08002ec8                RCC_APB2PeriphClockCmd
                0x08002f04                RCC_AHB1PeriphResetCmd
                0x08002f40                RCC_AHB2PeriphResetCmd
                0x08002f7c                RCC_AHB3PeriphResetCmd
                0x08002fb8                RCC_APB1PeriphResetCmd
                0x08002ff4                RCC_APB2PeriphResetCmd
                0x08003030                RCC_AHB1PeriphClockLPModeCmd
                0x0800306c                RCC_AHB2PeriphClockLPModeCmd
                0x080030a8                RCC_AHB3PeriphClockLPModeCmd
                0x080030e4                RCC_APB1PeriphClockLPModeCmd
                0x08003120                RCC_APB2PeriphClockLPModeCmd
                0x0800315c                RCC_ITConfig
                0x080031a8                RCC_GetFlagStatus
                0x0800321c                RCC_ClearFlag
                0x08003238                RCC_GetITStatus
                0x08003270                RCC_ClearITPendingBit
 .text          0x08003290     0x1638 ..\obj\usb_core.o
                0x08003360                USB_OTG_WritePacket
                0x080033d8                USB_OTG_ReadPacket
                0x08003430                USB_OTG_SelectCore
                0x080035a4                USB_OTG_CoreInit
                0x08003780                USB_OTG_EnableGlobalInt
                0x080037b8                USB_OTG_DisableGlobalInt
                0x080037f0                USB_OTG_FlushTxFifo
                0x0800386c                USB_OTG_FlushRxFifo
                0x080038cc                USB_OTG_SetCurrentMode
                0x0800392c                USB_OTG_GetMode
                0x0800394c                USB_OTG_IsDeviceMode
                0x08003970                USB_OTG_IsHostMode
                0x08003994                USB_OTG_ReadCoreItr
                0x080039c4                USB_OTG_ReadOtgItr
                0x080039e0                USB_OTG_InitDevSpeed
                0x08003a18                USB_OTG_CoreInitDev
                0x08003c7c                USB_OTG_EnableDevInt
                0x08003d14                USB_OTG_GetDeviceSpeed
                0x08003d5c                USB_OTG_EP0Activate
                0x08003dd4                USB_OTG_EPActivate
                0x08003eb0                USB_OTG_EPDeactivate
                0x08003f3c                USB_OTG_EPStartXfer
                0x080041bc                USB_OTG_EP0StartXfer
                0x08004390                USB_OTG_EPSetStall
                0x08004418                USB_OTG_EPClearStall
                0x08004490                USB_OTG_ReadDevAllOutEp_itr
                0x080044bc                USB_OTG_ReadDevOutEP_itr
                0x080044f4                USB_OTG_ReadDevAllInEPItr
                0x08004520                USB_OTG_EP0_OutStart
                0x08004590                USB_OTG_ActiveRemoteWakeup
                0x0800461c                USB_OTG_UngateClock
                0x08004670                USB_OTG_StopDevice
                0x080046f0                USB_OTG_GetEPStatus
                0x0800479c                USB_OTG_SetEPStatus
 .text          0x080048c8      0x160 ..\obj\usbd_ioreq.o
                0x080048c8                USBD_CtlSendData
                0x08004908                USBD_CtlContinueSendData
                0x08004930                USBD_CtlPrepareRx
                0x08004970                USBD_CtlContinueRx
                0x08004998                USBD_CtlSendStatus
                0x080049c8                USBD_CtlReceiveStatus
                0x080049f8                USBD_GetRxCount
 .text          0x08004a28      0x48c ..\obj\usbd_cdc_core.o
 .text          0x08004eb4      0x21c ..\obj\stm32f4xx_exti.o
                0x08004eb4                EXTI_DeInit
                0x08004ee8                EXTI_Init
                0x08004fcc                EXTI_StructInit
                0x08004ff8                EXTI_GenerateSWInterrupt
                0x0800501c                EXTI_GetFlagStatus
                0x08005050                EXTI_ClearFlag
                0x0800506c                EXTI_GetITStatus
                0x080050b4                EXTI_ClearITPendingBit
 .text          0x080050d0      0x244 ..\obj\system_stm32f4xx.o
                0x080050d0                SystemInit
                0x08005128                SystemCoreClockUpdate
 .text          0x08005314      0x574 ..\obj\usb_dcd.o
                0x08005314                DCD_Init
                0x08005414                DCD_EP_Open
                0x080054bc                DCD_EP_Close
                0x0800552c                DCD_EP_PrepareRx
                0x080055b0                DCD_EP_Tx
                0x08005628                DCD_EP_Stall
                0x0800569c                DCD_EP_ClrStall
                0x08005710                DCD_EP_Flush
                0x08005744                DCD_EP_SetAddress
                0x08005780                DCD_DevConnect
                0x080057ac                DCD_DevDisconnect
                0x080057d8                DCD_GetEPStatus
                0x08005834                DCD_SetEPStatus
 .text          0x08005888      0x168 ..\obj\usbd_desc.o
                0x08005888                USBD_USR_DeviceDescriptor
                0x080058ac                USBD_USR_LangIDStrDescriptor
                0x080058d0                USBD_USR_ProductStrDescriptor
                0x08005910                USBD_USR_ManufacturerStrDescriptor
                0x08005938                USBD_USR_SerialStrDescriptor
                0x08005978                USBD_USR_ConfigStrDescriptor
                0x080059b4                USBD_USR_InterfaceStrDescriptor
 *(.text*)
 *(.glue_7)
 .glue_7        0x00000000        0x0 linker stubs
 *(.glue_7t)
 .glue_7t       0x00000000        0x0 linker stubs
 *(.eh_frame)
 *(.init)
 *(.fini)
                0x080059f0                . = ALIGN (0x4)
                0x080059f0                _etext = .

.vfp11_veneer   0x080059f0        0x0
 .vfp11_veneer  0x00000000        0x0 linker stubs

.v4_bx          0x080059f0        0x0
 .v4_bx         0x00000000        0x0 linker stubs

.iplt           0x080059f0        0x0
 .iplt          0x00000000        0x0 ..\obj\stm32f4xx_gpio.o

.rodata         0x080059f0       0x98
                0x080059f0                . = ALIGN (0x4)
 *(.rodata)
 .rodata        0x080059f0       0x96 ..\obj\usbd_desc.o
 *(.rodata*)
                0x08005a88                . = ALIGN (0x4)
 *fill*         0x08005a86        0x2 

.rel.dyn        0x08005a88        0x0
 .rel.iplt      0x00000000        0x0 ..\obj\stm32f4xx_gpio.o

.ARM.extab
 *(.ARM.extab* .gnu.linkonce.armextab.*)

.ARM            0x08005a88        0x0
                0x08005a88                __exidx_start = .
 *(.ARM.exidx*)
                0x08005a88                __exidx_end = .

.preinit_array  0x08005a88        0x0
                0x08005a88                PROVIDE (__preinit_array_start, .)
 *(.preinit_array*)
                0x08005a88                PROVIDE (__preinit_array_end, .)

.init_array     0x08005a88        0x0
                0x08005a88                PROVIDE (__init_array_start, .)
 *(SORT(.init_array.*))
 *(.init_array*)
                0x08005a88                PROVIDE (__init_array_end, .)

.fini_array     0x08005a88        0x0
                0x08005a88                PROVIDE (__fini_array_start, .)
 *(SORT(.fini_array.*))
 *(.fini_array*)
                0x08005a88                PROVIDE (__fini_array_end, .)
                0x08005a88                _sidata = LOADADDR (.data)

.data           0x20000000      0x140 load address 0x08005a88
                0x20000000                . = ALIGN (0x4)
                0x20000000                _sdata = .
 *(.data)
 .data          0x20000000       0x1c ..\obj\usbd_cdc_vcp.o
                0x20000000                linecoding
                0x20000008                VCP_fops
 .data          0x2000001c       0x1c ..\obj\usbd_usr.o
                0x2000001c                USR_cb
 .data          0x20000038       0x30 ..\obj\usbd_core.o
                0x20000038                USBD_DCD_INT_cb
                0x20000064                USBD_DCD_INT_fops
 .data          0x20000068       0x10 ..\obj\stm32f4xx_rcc.o
 .data          0x20000078       0x74 ..\obj\usbd_cdc_core.o
                0x20000078                usbd_cdc_CfgDesc
                0x200000c0                USBD_CDC_cb
 .data          0x200000ec       0x14 ..\obj\system_stm32f4xx.o
                0x200000ec                SystemCoreClock
                0x200000f0                AHBPrescTable
 .data          0x20000100       0x40 ..\obj\usbd_desc.o
                0x20000100                USR_desc
                0x2000011c                USBD_DeviceDesc
                0x20000130                USBD_DeviceQualifierDesc
                0x2000013c                USBD_LangIDDesc
 *(.data*)
                0x20000140                . = ALIGN (0x4)
 *(.rwtext)
                0x20000140                . = ALIGN (0x4)
                0x20000140                _edata = .
                0x08006bc8                _siccmram = LOADADDR (.ccmram)

.igot.plt       0x20000140        0x0 load address 0x08005bc8
 .igot.plt      0x00000000        0x0 ..\obj\stm32f4xx_gpio.o

.co_stack       0x20000140     0x1000 load address 0x08005bc8
 .co_stack      0x20000140     0x1000 ..\obj\startup_stm32f4xx.o
                0x20000140                pulStack

.ccmram         0x10000000        0x0 load address 0x08006bc8
                0x10000000                . = ALIGN (0x4)
                0x10000000                _sccmram = .
 *(.ccmram)
 *(.ccmram*)
                0x10000000                . = ALIGN (0x4)
                0x10000000                _eccmram = .
                0x10000000                . = ALIGN (0x4)

.bss            0x20001140      0xf7c
                0x20001140                _sbss = .
                0x20001140                __bss_start__ = _sbss
 *(.bss)
 .bss           0x20001140        0xd ..\obj\usbd_req.o
                0x20001140                USBD_ep_status
                0x20001144                USBD_default_cfg
                0x20001148                USBD_cfg_status
 *fill*         0x2000114d        0x3 
 .bss           0x20001150       0x1c ..\obj\usbd_cdc_core.o
                0x20001154                APP_Rx_ptr_in
                0x20001158                APP_Rx_ptr_out
                0x2000115c                APP_Rx_length
                0x20001160                USB_Tx_State
 *(.bss*)
 *(COMMON)
 COMMON         0x2000116c       0x32 ..\obj\usbd_req.o
                0x2000116c                USBD_StrDesc
 *fill*         0x2000119e        0x2 
 COMMON         0x200011a0       0x98 ..\obj\usbd_cdc_vcp.o
                0x200011a0                APP_Tx_Buffer
                0x20001220                APP_tx_ptr_tail
                0x20001224                USART_InitStructure
                0x20001234                APP_tx_ptr_head
 COMMON         0x20001238      0x5f8 ..\obj\main.o
                0x20001238                ticker
                0x2000123c                downTicker
                0x20001240                USB_OTG_dev
 COMMON         0x20001830      0x88c ..\obj\usbd_cdc_core.o
                0x20001830                usbd_cdc_OtherCfgDesc
                0x20001874                USB_Rx_Buffer
                0x200018b4                CmdBuff
                0x200018bc                APP_Rx_Buffer
                0x200020bc                . = ALIGN (0x4)
                0x200020bc                _ebss = .
                0x200020bc                __bss_end__ = _ebss

._user_heap_stack
                0x200020bc      0x800
                0x200020bc                . = ALIGN (0x4)
                0x200020bc                PROVIDE (end, .)
                0x200020bc                PROVIDE (_end, .)
                0x200024bc                . = (. + _Min_Heap_Size)
 *fill*         0x200020bc      0x400 
                0x200028bc                . = (. + _Min_Stack_Size)
 *fill*         0x200024bc      0x400 
                0x200028bc                . = ALIGN (0x4)

/DISCARD/
 libc.a(*)
 libm.a(*)
 libgcc.a(*)

.ARM.attributes
                0x00000000       0x33
 *(.ARM.attributes)
 .ARM.attributes
                0x00000000       0x33 ..\obj\stm32f4xx_gpio.o
 .ARM.attributes
                0x00000033       0x33 ..\obj\usbd_req.o
 .ARM.attributes
                0x00000066       0x33 ..\obj\usbd_cdc_vcp.o
 .ARM.attributes
                0x00000099       0x33 ..\obj\usb_dcd_int.o
 .ARM.attributes
                0x000000cc       0x33 ..\obj\usb_bsp.o
 .ARM.attributes
                0x000000ff       0x33 ..\obj\misc.o
 .ARM.attributes
                0x00000132       0x33 ..\obj\usbd_usr.o
 .ARM.attributes
                0x00000165       0x33 ..\obj\main.o
 .ARM.attributes
                0x00000198       0x33 ..\obj\usbd_core.o
 .ARM.attributes
                0x000001cb       0x33 ..\obj\startup_stm32f4xx.o
 .ARM.attributes
                0x000001fe       0x33 ..\obj\stm32f4xx_rcc.o
 .ARM.attributes
                0x00000231       0x33 ..\obj\usb_core.o
 .ARM.attributes
                0x00000264       0x33 ..\obj\usbd_ioreq.o
 .ARM.attributes
                0x00000297       0x33 ..\obj\usbd_cdc_core.o
 .ARM.attributes
                0x000002ca       0x33 ..\obj\stm32f4xx_exti.o
 .ARM.attributes
                0x000002fd       0x33 ..\obj\system_stm32f4xx.o
 .ARM.attributes
                0x00000330       0x33 ..\obj\usb_dcd.o
 .ARM.attributes
                0x00000363       0x33 ..\obj\usbd_desc.o
LOAD ..\obj\stm32f4xx_gpio.o
LOAD ..\obj\stm32f4xx_usart.o
LOAD ..\obj\usbd_req.o
LOAD ..\obj\usbd_cdc_vcp.o
LOAD ..\obj\usb_dcd_int.o
LOAD ..\obj\usb_bsp.o
LOAD ..\obj\misc.o
LOAD ..\obj\usbd_usr.o
LOAD ..\obj\main.o
LOAD ..\obj\usbd_core.o
LOAD ..\obj\startup_stm32f4xx.o
LOAD ..\obj\stm32f4xx_rcc.o
LOAD ..\obj\usb_core.o
LOAD ..\obj\usbd_ioreq.o
LOAD ..\obj\usbd_cdc_core.o
LOAD ..\obj\stm32f4xx_exti.o
LOAD ..\obj\system_stm32f4xx.o
LOAD ..\obj\usb_dcd.o
LOAD ..\obj\usbd_desc.o
START GROUP
LOAD c:/program files (x86)/gnu tools arm embedded/4.9 2015q3/bin/../lib/gcc/arm-none-eabi/4.9.3/armv7e-m\libgcc.a
LOAD c:/program files (x86)/gnu tools arm embedded/4.9 2015q3/bin/../lib/gcc/arm-none-eabi/4.9.3/../../../../arm-none-eabi/lib/armv7e-m\libg.a
LOAD c:/program files (x86)/gnu tools arm embedded/4.9 2015q3/bin/../lib/gcc/arm-none-eabi/4.9.3/../../../../arm-none-eabi/lib/armv7e-m\libc.a
END GROUP
OUTPUT(STM32_Build.elf elf32-littlearm)

.debug_info     0x00000000     0xdb5f
 .debug_info    0x00000000      0x602 ..\obj\stm32f4xx_gpio.o
 .debug_info    0x00000602      0xf9b ..\obj\usbd_req.o
 .debug_info    0x0000159d      0x4ae ..\obj\usbd_cdc_vcp.o
 .debug_info    0x00001a4b     0x1d6d ..\obj\usb_dcd_int.o
 .debug_info    0x000037b8     0x1004 ..\obj\usb_bsp.o
 .debug_info    0x000047bc      0x53d ..\obj\misc.o
 .debug_info    0x00004cf9      0x1cb ..\obj\usbd_usr.o
 .debug_info    0x00004ec4     0x13ad ..\obj\main.o
 .debug_info    0x00006271      0xe95 ..\obj\usbd_core.o
 .debug_info    0x00007106       0xed ..\obj\startup_stm32f4xx.o
 .debug_info    0x000071f3      0xc4d ..\obj\stm32f4xx_rcc.o
 .debug_info    0x00007e40     0x251b ..\obj\usb_core.o
 .debug_info    0x0000a35b      0xcb7 ..\obj\usbd_ioreq.o
 .debug_info    0x0000b012      0xef2 ..\obj\usbd_cdc_core.o
 .debug_info    0x0000bf04      0x347 ..\obj\stm32f4xx_exti.o
 .debug_info    0x0000c24b      0x592 ..\obj\system_stm32f4xx.o
 .debug_info    0x0000c7dd     0x101f ..\obj\usb_dcd.o
 .debug_info    0x0000d7fc      0x363 ..\obj\usbd_desc.o

.debug_abbrev   0x00000000     0x20b8
 .debug_abbrev  0x00000000      0x1a3 ..\obj\stm32f4xx_gpio.o
 .debug_abbrev  0x000001a3      0x293 ..\obj\usbd_req.o
 .debug_abbrev  0x00000436      0x189 ..\obj\usbd_cdc_vcp.o
 .debug_abbrev  0x000005bf      0x25b ..\obj\usb_dcd_int.o
 .debug_abbrev  0x0000081a      0x22b ..\obj\usb_bsp.o
 .debug_abbrev  0x00000a45      0x145 ..\obj\misc.o
 .debug_abbrev  0x00000b8a       0xdd ..\obj\usbd_usr.o
 .debug_abbrev  0x00000c67      0x296 ..\obj\main.o
 .debug_abbrev  0x00000efd      0x21d ..\obj\usbd_core.o
 .debug_abbrev  0x0000111a       0xb0 ..\obj\startup_stm32f4xx.o
 .debug_abbrev  0x000011ca      0x1e3 ..\obj\stm32f4xx_rcc.o
 .debug_abbrev  0x000013ad      0x2e7 ..\obj\usb_core.o
 .debug_abbrev  0x00001694      0x1af ..\obj\usbd_ioreq.o
 .debug_abbrev  0x00001843      0x215 ..\obj\usbd_cdc_core.o
 .debug_abbrev  0x00001a58      0x1a5 ..\obj\stm32f4xx_exti.o
 .debug_abbrev  0x00001bfd      0x136 ..\obj\system_stm32f4xx.o
 .debug_abbrev  0x00001d33      0x259 ..\obj\usb_dcd.o
 .debug_abbrev  0x00001f8c      0x12c ..\obj\usbd_desc.o

.debug_aranges  0x00000000      0x240
 .debug_aranges
                0x00000000       0x20 ..\obj\stm32f4xx_gpio.o
 .debug_aranges
                0x00000020       0x20 ..\obj\usbd_req.o
 .debug_aranges
                0x00000040       0x20 ..\obj\usbd_cdc_vcp.o
 .debug_aranges
                0x00000060       0x20 ..\obj\usb_dcd_int.o
 .debug_aranges
                0x00000080       0x20 ..\obj\usb_bsp.o
 .debug_aranges
                0x000000a0       0x20 ..\obj\misc.o
 .debug_aranges
                0x000000c0       0x20 ..\obj\usbd_usr.o
 .debug_aranges
                0x000000e0       0x20 ..\obj\main.o
 .debug_aranges
                0x00000100       0x20 ..\obj\usbd_core.o
 .debug_aranges
                0x00000120       0x20 ..\obj\startup_stm32f4xx.o
 .debug_aranges
                0x00000140       0x20 ..\obj\stm32f4xx_rcc.o
 .debug_aranges
                0x00000160       0x20 ..\obj\usb_core.o
 .debug_aranges
                0x00000180       0x20 ..\obj\usbd_ioreq.o
 .debug_aranges
                0x000001a0       0x20 ..\obj\usbd_cdc_core.o
 .debug_aranges
                0x000001c0       0x20 ..\obj\stm32f4xx_exti.o
 .debug_aranges
                0x000001e0       0x20 ..\obj\system_stm32f4xx.o
 .debug_aranges
                0x00000200       0x20 ..\obj\usb_dcd.o
 .debug_aranges
                0x00000220       0x20 ..\obj\usbd_desc.o

.debug_line     0x00000000     0x314e
 .debug_line    0x00000000      0x2ca ..\obj\stm32f4xx_gpio.o
 .debug_line    0x000002ca      0x379 ..\obj\usbd_req.o
 .debug_line    0x00000643      0x2d2 ..\obj\usbd_cdc_vcp.o
 .debug_line    0x00000915      0x31f ..\obj\usb_dcd_int.o
 .debug_line    0x00000c34      0x2bc ..\obj\usb_bsp.o
 .debug_line    0x00000ef0      0x245 ..\obj\misc.o
 .debug_line    0x00001135      0x1e9 ..\obj\usbd_usr.o
 .debug_line    0x0000131e      0x3e4 ..\obj\main.o
 .debug_line    0x00001702      0x2c4 ..\obj\usbd_core.o
 .debug_line    0x000019c6       0x9d ..\obj\startup_stm32f4xx.o
 .debug_line    0x00001a63      0x3a7 ..\obj\stm32f4xx_rcc.o
 .debug_line    0x00001e0a      0x530 ..\obj\usb_core.o
 .debug_line    0x0000233a      0x224 ..\obj\usbd_ioreq.o
 .debug_line    0x0000255e      0x2c1 ..\obj\usbd_cdc_core.o
 .debug_line    0x0000281f      0x27e ..\obj\stm32f4xx_exti.o
 .debug_line    0x00002a9d      0x1f8 ..\obj\system_stm32f4xx.o
 .debug_line    0x00002c95      0x2ad ..\obj\usb_dcd.o
 .debug_line    0x00002f42      0x20c ..\obj\usbd_desc.o

.debug_str      0x00000000     0x37c3
 .debug_str     0x00000000      0x442 ..\obj\stm32f4xx_gpio.o
                                0x498 (size before relaxing)
 .debug_str     0x00000442      0x853 ..\obj\usbd_req.o
                                0xaf1 (size before relaxing)
 .debug_str     0x00000c95      0x240 ..\obj\usbd_cdc_vcp.o
                                0x3ab (size before relaxing)
 .debug_str     0x00000ed5      0x7d6 ..\obj\usb_dcd_int.o
                               0x127e (size before relaxing)
 .debug_str     0x000016ab      0x677 ..\obj\usb_bsp.o
                               0x10c7 (size before relaxing)
 .debug_str     0x00001d22      0x19a ..\obj\misc.o
                                0x3c3 (size before relaxing)
 .debug_str     0x00001ebc       0xed ..\obj\usbd_usr.o
                                0x2a0 (size before relaxing)
 .debug_str     0x00001fa9      0x1ba ..\obj\main.o
                               0x11e5 (size before relaxing)
 .debug_str     0x00002163      0x12a ..\obj\usbd_core.o
                                0xac6 (size before relaxing)
 .debug_str     0x0000228d       0xb8 ..\obj\startup_stm32f4xx.o
                                0x13c (size before relaxing)
 .debug_str     0x00002345      0x658 ..\obj\stm32f4xx_rcc.o
                                0x845 (size before relaxing)
 .debug_str     0x0000299d      0x6b6 ..\obj\usb_core.o
                               0x1680 (size before relaxing)
 .debug_str     0x00003053       0xd2 ..\obj\usbd_ioreq.o
                                0x9b0 (size before relaxing)
 .debug_str     0x00003125      0x1a9 ..\obj\usbd_cdc_core.o
                                0xb0e (size before relaxing)
 .debug_str     0x000032ce      0x1e2 ..\obj\stm32f4xx_exti.o
                                0x34e (size before relaxing)
 .debug_str     0x000034b0       0xbc ..\obj\system_stm32f4xx.o
                                0x39f (size before relaxing)
 .debug_str     0x0000356c      0x117 ..\obj\usb_dcd.o
                                0xb20 (size before relaxing)
 .debug_str     0x00003683      0x140 ..\obj\usbd_desc.o
                                0x379 (size before relaxing)

.comment        0x00000000       0x70
 .comment       0x00000000       0x70 ..\obj\stm32f4xx_gpio.o
                                 0x71 (size before relaxing)
 .comment       0x00000000       0x71 ..\obj\usbd_req.o
 .comment       0x00000000       0x71 ..\obj\usbd_cdc_vcp.o
 .comment       0x00000000       0x71 ..\obj\usb_dcd_int.o
 .comment       0x00000000       0x71 ..\obj\usb_bsp.o
 .comment       0x00000000       0x71 ..\obj\misc.o
 .comment       0x00000000       0x71 ..\obj\usbd_usr.o
 .comment       0x00000000       0x71 ..\obj\main.o
 .comment       0x00000000       0x71 ..\obj\usbd_core.o
 .comment       0x00000000       0x71 ..\obj\startup_stm32f4xx.o
 .comment       0x00000000       0x71 ..\obj\stm32f4xx_rcc.o
 .comment       0x00000000       0x71 ..\obj\usb_core.o
 .comment       0x00000000       0x71 ..\obj\usbd_ioreq.o
 .comment       0x00000000       0x71 ..\obj\usbd_cdc_core.o
 .comment       0x00000000       0x71 ..\obj\stm32f4xx_exti.o
 .comment       0x00000000       0x71 ..\obj\system_stm32f4xx.o
 .comment       0x00000000       0x71 ..\obj\usb_dcd.o
 .comment       0x00000000       0x71 ..\obj\usbd_desc.o

.debug_frame    0x00000000     0x2254
 .debug_frame   0x00000000      0x23c ..\obj\stm32f4xx_gpio.o
 .debug_frame   0x0000023c      0x210 ..\obj\usbd_req.o
 .debug_frame   0x0000044c      0x1a4 ..\obj\usbd_cdc_vcp.o
 .debug_frame   0x000005f0      0x1e8 ..\obj\usb_dcd_int.o
 .debug_frame   0x000007d8       0xf4 ..\obj\usb_bsp.o
 .debug_frame   0x000008cc       0xd8 ..\obj\misc.o
 .debug_frame   0x000009a4       0xf8 ..\obj\usbd_usr.o
 .debug_frame   0x00000a9c      0x204 ..\obj\main.o
 .debug_frame   0x00000ca0      0x1e8 ..\obj\usbd_core.o
 .debug_frame   0x00000e88       0x4c ..\obj\startup_stm32f4xx.o
 .debug_frame   0x00000ed4      0x6d4 ..\obj\stm32f4xx_rcc.o
 .debug_frame   0x000015a8      0x584 ..\obj\usb_core.o
 .debug_frame   0x00001b2c      0x110 ..\obj\usbd_ioreq.o
 .debug_frame   0x00001c3c      0x158 ..\obj\usbd_cdc_core.o
 .debug_frame   0x00001d94      0x148 ..\obj\stm32f4xx_exti.o
 .debug_frame   0x00001edc       0x7c ..\obj\system_stm32f4xx.o
 .debug_frame   0x00001f58      0x1e8 ..\obj\usb_dcd.o
 .debug_frame   0x00002140      0x114 ..\obj\usbd_desc.o
